target datalayout = "e-m:e-p270:32:32-p271:32:32-p272:64:64-i64:64-i128:128-f80:128-n8:16:32:64-S128"
target triple = "x86_64-pc-linux-gnu"

%struct.GetBitContext = type { ptr, ptr, i32, i32, i32 }

; Function Attrs: alwaysinline nounwind willreturn memory(none) uwtable
define internal i32 @av_bswap32(i32 noundef %0) #10 {
  %2 = alloca i32, align 4
  store i32 %0, ptr %2, align 4, !tbaa !38
  %3 = load i32, ptr %2, align 4, !tbaa !38
  %4 = shl i32 %3, 8
  %5 = and i32 %4, 65280
  %6 = load i32, ptr %2, align 4, !tbaa !38
  %7 = lshr i32 %6, 8
  %8 = and i32 %7, 255
  %9 = or i32 %5, %8
  %10 = shl i32 %9, 16
  %11 = load i32, ptr %2, align 4, !tbaa !38
  %12 = lshr i32 %11, 16
  %13 = shl i32 %12, 8
  %14 = and i32 %13, 65280
  %15 = load i32, ptr %2, align 4, !tbaa !38
  %16 = lshr i32 %15, 16
  %17 = lshr i32 %16, 8
  %18 = and i32 %17, 255
  %19 = or i32 %14, %18
  %20 = or i32 %10, %19
  ret i32 %20
}

; Function Attrs: inlinehint nounwind uwtable
define internal i32 @get_bits(ptr noundef %0, i32 noundef %1) #6 {
  %3 = alloca ptr, align 8
  %4 = alloca i32, align 4
  %5 = alloca i32, align 4
  %6 = alloca i32, align 4
  %7 = alloca i32, align 4
  %8 = alloca i32, align 4
  store ptr %0, ptr %3, align 8, !tbaa !124
  store i32 %1, ptr %4, align 4, !tbaa !38
  call void @llvm.lifetime.start.p0(i64 4, ptr %5) #11
  call void @llvm.lifetime.start.p0(i64 4, ptr %6) #11
  %9 = load ptr, ptr %3, align 8, !tbaa !124
  %10 = getelementptr inbounds nuw %struct.GetBitContext, ptr %9, i32 0, i32 2
  %11 = load i32, ptr %10, align 8, !tbaa !163
  store i32 %11, ptr %6, align 4, !tbaa !38
  call void @llvm.lifetime.start.p0(i64 4, ptr %7) #11
  call void @llvm.lifetime.start.p0(i64 4, ptr %8) #11
  %12 = load ptr, ptr %3, align 8, !tbaa !124
  %13 = getelementptr inbounds nuw %struct.GetBitContext, ptr %12, i32 0, i32 4
  %14 = load i32, ptr %13, align 8, !tbaa !165
  store i32 %14, ptr %8, align 4, !tbaa !38
  %15 = load ptr, ptr %3, align 8, !tbaa !124
  %16 = getelementptr inbounds nuw %struct.GetBitContext, ptr %15, i32 0, i32 0
  %17 = load ptr, ptr %16, align 8, !tbaa !164
  %18 = load i32, ptr %6, align 4, !tbaa !38
  %19 = lshr i32 %18, 3
  %20 = zext i32 %19 to i64
  %21 = getelementptr inbounds nuw i8, ptr %17, i64 %20
  %22 = load i32, ptr %21, align 1, !tbaa !47
  %23 = call i32 @av_bswap32(i32 noundef %22) #13
  %24 = load i32, ptr %6, align 4, !tbaa !38
  %25 = and i32 %24, 7
  %26 = shl i32 %23, %25
  %27 = lshr i32 %26, 0
  store i32 %27, ptr %7, align 4, !tbaa !38
  %28 = load i32, ptr %7, align 4, !tbaa !38
  %29 = load i32, ptr %4, align 4, !tbaa !38
  %30 = sub nsw i32 32, %29
  %31 = lshr i32 %28, %30
  store i32 %31, ptr %5, align 4, !tbaa !38
  %32 = load i32, ptr %8, align 4, !tbaa !38
  %33 = load i32, ptr %6, align 4, !tbaa !38
  %34 = load i32, ptr %4, align 4, !tbaa !38
  %35 = add i32 %33, %34
  %36 = icmp ugt i32 %32, %35
  br i1 %36, label %37, label %41

37:                                               ; preds = %2
  %38 = load i32, ptr %6, align 4, !tbaa !38
  %39 = load i32, ptr %4, align 4, !tbaa !38
  %40 = add i32 %38, %39
  br label %43

41:                                               ; preds = %2
  %42 = load i32, ptr %8, align 4, !tbaa !38
  br label %43

43:                                               ; preds = %41, %37
  %44 = phi i32 [ %40, %37 ], [ %42, %41 ]
  store i32 %44, ptr %6, align 4, !tbaa !38
  %45 = load i32, ptr %6, align 4, !tbaa !38
  %46 = load ptr, ptr %3, align 8, !tbaa !124
  %47 = getelementptr inbounds nuw %struct.GetBitContext, ptr %46, i32 0, i32 2
  store i32 %45, ptr %47, align 8, !tbaa !163
  %48 = load i32, ptr %5, align 4, !tbaa !38
  call void @llvm.lifetime.end.p0(i64 4, ptr %8) #11
  call void @llvm.lifetime.end.p0(i64 4, ptr %7) #11
  call void @llvm.lifetime.end.p0(i64 4, ptr %6) #11
  call void @llvm.lifetime.end.p0(i64 4, ptr %5) #11
  ret i32 %48
}

; Function Attrs: nounwind uwtable
define internal void @lsp_unquant_lbr(ptr noundef %0, i32 noundef %1, ptr noundef %2) #1 {
  %4 = alloca ptr, align 8
  %5 = alloca i32, align 4
  %6 = alloca ptr, align 8
  %7 = alloca i32, align 4
  %8 = alloca i32, align 4
  %9 = alloca i32, align 4
  %10 = alloca i32, align 4
  %11 = alloca i32, align 4
  store ptr %0, ptr %4, align 8, !tbaa !75
  store i32 %1, ptr %5, align 4, !tbaa !38
  store ptr %2, ptr %6, align 8, !tbaa !124
  call void @llvm.lifetime.start.p0(i64 4, ptr %7) #11
  call void @llvm.lifetime.start.p0(i64 4, ptr %8) #11
  store i32 0, ptr %8, align 4, !tbaa !38
  br label %12

12:                                               ; preds = %25, %3
  %13 = load i32, ptr %8, align 4, !tbaa !38
  %14 = load i32, ptr %5, align 4, !tbaa !38
  %15 = icmp slt i32 %13, %14
  br i1 %15, label %17, label %16

16:                                               ; preds = %12
  call void @llvm.lifetime.end.p0(i64 4, ptr %8) #11
  br label %28

17:                                               ; preds = %12
  %18 = load i32, ptr %8, align 4, !tbaa !38
  %19 = sitofp i32 %18 to float
  %20 = call nsz float @llvm.fmuladd.f32(float 2.500000e-01, float %19, float 2.500000e-01)
  %21 = load ptr, ptr %4, align 8, !tbaa !75
  %22 = load i32, ptr %8, align 4, !tbaa !38
  %23 = sext i32 %22 to i64
  %24 = getelementptr inbounds float, ptr %21, i64 %23
  store float %20, ptr %24, align 4, !tbaa !64
  br label %25

25:                                               ; preds = %17
  %26 = load i32, ptr %8, align 4, !tbaa !38
  %27 = add nsw i32 %26, 1
  store i32 %27, ptr %8, align 4, !tbaa !38
  br label %12, !llvm.loop !193

28:                                               ; preds = %16
  %29 = load ptr, ptr %6, align 8, !tbaa !124
  %30 = call i32 @get_bits(ptr noundef %29, i32 noundef 6)
  store i32 %30, ptr %7, align 4, !tbaa !38
  call void @llvm.lifetime.start.p0(i64 4, ptr %9) #11
  store i32 0, ptr %9, align 4, !tbaa !38
  br label %31

31:                                               ; preds = %51, %28
  %32 = load i32, ptr %9, align 4, !tbaa !38
  %33 = icmp slt i32 %32, 10
  br i1 %33, label %35, label %34

34:                                               ; preds = %31
  call void @llvm.lifetime.end.p0(i64 4, ptr %9) #11
  br label %54

35:                                               ; preds = %31
  %36 = load i32, ptr %7, align 4, !tbaa !38
  %37 = mul nsw i32 %36, 10
  %38 = load i32, ptr %9, align 4, !tbaa !38
  %39 = add nsw i32 %37, %38
  %40 = sext i32 %39 to i64
  %41 = getelementptr inbounds [640 x i8], ptr @cdbk_nb, i64 0, i64 %40
  %42 = load i8, ptr %41, align 1, !tbaa !47
  %43 = sext i8 %42 to i32
  %44 = sitofp i32 %43 to float
  %45 = load ptr, ptr %4, align 8, !tbaa !75
  %46 = load i32, ptr %9, align 4, !tbaa !38
  %47 = sext i32 %46 to i64
  %48 = getelementptr inbounds float, ptr %45, i64 %47
  %49 = load float, ptr %48, align 4, !tbaa !64
  %50 = call nsz float @llvm.fmuladd.f32(float 3.906250e-03, float %44, float %49)
  store float %50, ptr %48, align 4, !tbaa !64
  br label %51

51:                                               ; preds = %35
  %52 = load i32, ptr %9, align 4, !tbaa !38
  %53 = add nsw i32 %52, 1
  store i32 %53, ptr %9, align 4, !tbaa !38
  br label %31, !llvm.loop !194

54:                                               ; preds = %34
  %55 = load ptr, ptr %6, align 8, !tbaa !124
  %56 = call i32 @get_bits(ptr noundef %55, i32 noundef 6)
  store i32 %56, ptr %7, align 4, !tbaa !38
  call void @llvm.lifetime.start.p0(i64 4, ptr %10) #11
  store i32 0, ptr %10, align 4, !tbaa !38
  br label %57

57:                                               ; preds = %77, %54
  %58 = load i32, ptr %10, align 4, !tbaa !38
  %59 = icmp slt i32 %58, 5
  br i1 %59, label %61, label %60

60:                                               ; preds = %57
  call void @llvm.lifetime.end.p0(i64 4, ptr %10) #11
  br label %80

61:                                               ; preds = %57
  %62 = load i32, ptr %7, align 4, !tbaa !38
  %63 = mul nsw i32 %62, 5
  %64 = load i32, ptr %10, align 4, !tbaa !38
  %65 = add nsw i32 %63, %64
  %66 = sext i32 %65 to i64
  %67 = getelementptr inbounds [320 x i8], ptr @cdbk_nb_low1, i64 0, i64 %66
  %68 = load i8, ptr %67, align 1, !tbaa !47
  %69 = sext i8 %68 to i32
  %70 = sitofp i32 %69 to float
  %71 = load ptr, ptr %4, align 8, !tbaa !75
  %72 = load i32, ptr %10, align 4, !tbaa !38
  %73 = sext i32 %72 to i64
  %74 = getelementptr inbounds float, ptr %71, i64 %73
  %75 = load float, ptr %74, align 4, !tbaa !64
  %76 = call nsz float @llvm.fmuladd.f32(float 0x3F60000000000000, float %70, float %75)
  store float %76, ptr %74, align 4, !tbaa !64
  br label %77

77:                                               ; preds = %61
  %78 = load i32, ptr %10, align 4, !tbaa !38
  %79 = add nsw i32 %78, 1
  store i32 %79, ptr %10, align 4, !tbaa !38
  br label %57, !llvm.loop !195

80:                                               ; preds = %60
  %81 = load ptr, ptr %6, align 8, !tbaa !124
  %82 = call i32 @get_bits(ptr noundef %81, i32 noundef 6)
  store i32 %82, ptr %7, align 4, !tbaa !38
  call void @llvm.lifetime.start.p0(i64 4, ptr %11) #11
  store i32 0, ptr %11, align 4, !tbaa !38
  br label %83

83:                                               ; preds = %104, %80
  %84 = load i32, ptr %11, align 4, !tbaa !38
  %85 = icmp slt i32 %84, 5
  br i1 %85, label %87, label %86

86:                                               ; preds = %83
  call void @llvm.lifetime.end.p0(i64 4, ptr %11) #11
  br label %107

87:                                               ; preds = %83
  %88 = load i32, ptr %7, align 4, !tbaa !38
  %89 = mul nsw i32 %88, 5
  %90 = load i32, ptr %11, align 4, !tbaa !38
  %91 = add nsw i32 %89, %90
  %92 = sext i32 %91 to i64
  %93 = getelementptr inbounds [320 x i8], ptr @cdbk_nb_high1, i64 0, i64 %92
  %94 = load i8, ptr %93, align 1, !tbaa !47
  %95 = sext i8 %94 to i32
  %96 = sitofp i32 %95 to float
  %97 = load ptr, ptr %4, align 8, !tbaa !75
  %98 = load i32, ptr %11, align 4, !tbaa !38
  %99 = add nsw i32 %98, 5
  %100 = sext i32 %99 to i64
  %101 = getelementptr inbounds float, ptr %97, i64 %100
  %102 = load float, ptr %101, align 4, !tbaa !64
  %103 = call nsz float @llvm.fmuladd.f32(float 0x3F60000000000000, float %96, float %102)
  store float %103, ptr %101, align 4, !tbaa !64
  br label %104

104:                                              ; preds = %87
  %105 = load i32, ptr %11, align 4, !tbaa !38
  %106 = add nsw i32 %105, 1
  store i32 %106, ptr %11, align 4, !tbaa !38
  br label %83, !llvm.loop !196

107:                                              ; preds = %86
  call void @llvm.lifetime.end.p0(i64 4, ptr %7) #11
  ret void
}