; Function Attrs: nofree norecurse nosync nounwind memory(read, argmem: readwrite, inaccessiblemem: none) uwtable
define internal void @lsp_unquant_lbr(ptr noundef captures(none) %0, i32 noundef %1, ptr noundef captures(none) %2) #9 {
  %4 = icmp sgt i32 %1, 0
  br i1 %4, label %.lr.ph.preheader, label %._crit_edge

.lr.ph.preheader:                                 ; preds = %3
  %wide.trip.count = zext nneg i32 %1 to i64
  br label %.lr.ph

._crit_edge:                                      ; preds = %.lr.ph, %3
  %5 = getelementptr inbounds nuw i8, ptr %2, i64 16
  %6 = load i32, ptr %5, align 8, !tbaa !94
  %7 = getelementptr inbounds nuw i8, ptr %2, i64 24
  %8 = load i32, ptr %7, align 8, !tbaa !92
  %9 = load ptr, ptr %2, align 8, !tbaa !90
  %10 = lshr i32 %6, 3
  %11 = zext nneg i32 %10 to i64
  %12 = getelementptr inbounds nuw i8, ptr %9, i64 %11
  %13 = load i32, ptr %12, align 1, !tbaa !34
  %14 = tail call i32 @llvm.bswap.i32(i32 %13)
  %15 = and i32 %6, 7
  %16 = shl i32 %14, %15
  %17 = lshr i32 %16, 26
  %18 = add i32 %6, 6
  %19 = tail call i32 @llvm.umin.i32(i32 %8, i32 %18)
  store i32 %19, ptr %5, align 8, !tbaa !94
  %20 = mul nuw nsw i32 %17, 10
  %21 = zext nneg i32 %20 to i64
  br label %39

.lr.ph:                                           ; preds = %.lr.ph.preheader, %.lr.ph
  %indvars.iv = phi i64 [ 0, %.lr.ph.preheader ], [ %indvars.iv.next, %.lr.ph ]
  %22 = trunc nuw nsw i64 %indvars.iv to i32
  %23 = uitofp nneg i32 %22 to float
  %24 = tail call nsz float @llvm.fmuladd.f32(float %23, float 2.500000e-01, float 2.500000e-01)
  %25 = getelementptr inbounds nuw float, ptr %0, i64 %indvars.iv
  store float %24, ptr %25, align 4, !tbaa !105
  %indvars.iv.next = add nuw nsw i64 %indvars.iv, 1
  %exitcond.not = icmp eq i64 %indvars.iv.next, %wide.trip.count
  br i1 %exitcond.not, label %._crit_edge, label %.lr.ph, !llvm.loop !178

26:                                               ; preds = %39
  %27 = lshr i32 %19, 3
  %28 = zext nneg i32 %27 to i64
  %29 = getelementptr inbounds nuw i8, ptr %9, i64 %28
  %30 = load i32, ptr %29, align 1, !tbaa !34
  %31 = tail call i32 @llvm.bswap.i32(i32 %30)
  %32 = and i32 %19, 7
  %33 = shl i32 %31, %32
  %34 = lshr i32 %33, 26
  %35 = add i32 %19, 6
  %36 = tail call i32 @llvm.umin.i32(i32 %8, i32 %35)
  store i32 %36, ptr %5, align 8, !tbaa !94
  %37 = mul nuw nsw i32 %34, 5
  %38 = zext nneg i32 %37 to i64
  br label %60

39:                                               ; preds = %._crit_edge, %39
  %indvars.iv34 = phi i64 [ 0, %._crit_edge ], [ %indvars.iv.next35, %39 ]
  %40 = add nuw nsw i64 %indvars.iv34, %21
  %41 = getelementptr inbounds nuw [640 x i8], ptr @cdbk_nb, i64 0, i64 %40
  %42 = load i8, ptr %41, align 1, !tbaa !34
  %43 = sitofp i8 %42 to float
  %44 = getelementptr inbounds nuw float, ptr %0, i64 %indvars.iv34
  %45 = load float, ptr %44, align 4, !tbaa !105
  %46 = tail call nsz float @llvm.fmuladd.f32(float %43, float 3.906250e-03, float %45)
  store float %46, ptr %44, align 4, !tbaa !105
  %indvars.iv.next35 = add nuw nsw i64 %indvars.iv34, 1
  %exitcond37.not = icmp eq i64 %indvars.iv.next35, 10
  br i1 %exitcond37.not, label %26, label %39, !llvm.loop !179

47:                                               ; preds = %60
  %48 = lshr i32 %36, 3
  %49 = zext nneg i32 %48 to i64
  %50 = getelementptr inbounds nuw i8, ptr %9, i64 %49
  %51 = load i32, ptr %50, align 1, !tbaa !34
  %52 = tail call i32 @llvm.bswap.i32(i32 %51)
  %53 = and i32 %36, 7
  %54 = shl i32 %52, %53
  %55 = lshr i32 %54, 26
  %56 = add i32 %36, 6
  %57 = tail call i32 @llvm.umin.i32(i32 %8, i32 %56)
  store i32 %57, ptr %5, align 8, !tbaa !94
  %58 = mul nuw nsw i32 %55, 5
  %invariant.gep = getelementptr inbounds nuw i8, ptr %0, i64 20
  %59 = zext nneg i32 %58 to i64
  br label %69

60:                                               ; preds = %26, %60
  %indvars.iv38 = phi i64 [ 0, %26 ], [ %indvars.iv.next39, %60 ]
  %61 = add nuw nsw i64 %indvars.iv38, %38
  %62 = getelementptr inbounds nuw [320 x i8], ptr @cdbk_nb_low1, i64 0, i64 %61
  %63 = load i8, ptr %62, align 1, !tbaa !34
  %64 = sitofp i8 %63 to float
  %65 = getelementptr inbounds nuw float, ptr %0, i64 %indvars.iv38
  %66 = load float, ptr %65, align 4, !tbaa !105
  %67 = tail call nsz float @llvm.fmuladd.f32(float %64, float 0x3F60000000000000, float %66)
  store float %67, ptr %65, align 4, !tbaa !105
  %indvars.iv.next39 = add nuw nsw i64 %indvars.iv38, 1
  %exitcond41.not = icmp eq i64 %indvars.iv.next39, 5
  br i1 %exitcond41.not, label %47, label %60, !llvm.loop !180

68:                                               ; preds = %69
  ret void

69:                                               ; preds = %47, %69
  %indvars.iv42 = phi i64 [ 0, %47 ], [ %indvars.iv.next43, %69 ]
  %70 = add nuw nsw i64 %indvars.iv42, %59
  %71 = getelementptr inbounds nuw [320 x i8], ptr @cdbk_nb_high1, i64 0, i64 %70
  %72 = load i8, ptr %71, align 1, !tbaa !34
  %73 = sitofp i8 %72 to float
  %gep = getelementptr inbounds nuw float, ptr %invariant.gep, i64 %indvars.iv42
  %74 = load float, ptr %gep, align 4, !tbaa !105
  %75 = tail call nsz float @llvm.fmuladd.f32(float %73, float 0x3F60000000000000, float %74)
  store float %75, ptr %gep, align 4, !tbaa !105
  %indvars.iv.next43 = add nuw nsw i64 %indvars.iv42, 1
  %exitcond45.not = icmp eq i64 %indvars.iv.next43, 5
  br i1 %exitcond45.not, label %68, label %69, !llvm.loop !181
}